target datalayout = "e-m:e-p270:32:32-p271:32:32-p272:64:64-i64:64-i128:128-f80:128-n8:16:32:64-S128"
target triple = "x86_64-pc-linux-gnu"

%struct.KINMemRec = type { double, ptr, ptr, double, double, i32, i32, i64, i64, i64, i64, i32, i32, i32, i32, i32, i32, i32, i32, i32, double, double, double, double, double, double, double, double, double, i32, double, i64, i64, i64, i64, i64, i64, i64, ptr, ptr, ptr, ptr, ptr, ptr, ptr, ptr, ptr, ptr, ptr, ptr, ptr, ptr, ptr, ptr, ptr, ptr, i64, i32, i32, i64, i64, i64, i64, ptr, ptr, ptr, ptr, i32, ptr, double, double, double, double, double, i32, double, double, double, i32, ptr, ptr, ptr, ptr, ptr, ptr }

@.str = private unnamed_addr constant [7 x i8] c"KINSOL\00", align 1
@.str.1 = private unnamed_addr constant [10 x i8] c"KINCreate\00", align 1
@.str.2 = private unnamed_addr constant [25 x i8] c"A memory request failed.\00", align 1
@stderr = external global ptr, align 8
@stdout = external global ptr, align 8

; Function Attrs: nounwind uwtable
define ptr @KINCreate() #0 {
  %1 = alloca ptr, align 8
  %2 = alloca ptr, align 8
  %3 = alloca double, align 8
  %4 = alloca i32, align 4
  call void @llvm.lifetime.start.p0(i64 8, ptr %2) #8
  call void @llvm.lifetime.start.p0(i64 8, ptr %3) #8
  store ptr null, ptr %2, align 8, !tbaa !3
  %5 = call noalias ptr @malloc(i64 noundef 632) #9
  store ptr %5, ptr %2, align 8, !tbaa !3
  %6 = load ptr, ptr %2, align 8, !tbaa !3
  %7 = icmp eq ptr %6, null
  br i1 %7, label %8, label %10

8:                                                ; preds = %0
  %9 = load ptr, ptr %2, align 8, !tbaa !3
  call void (ptr, i32, ptr, ptr, ptr, ...) @KINProcessError(ptr noundef %9, i32 noundef 0, ptr noundef @.str, ptr noundef @.str.1, ptr noundef @.str.2)
  store ptr null, ptr %1, align 8
  store i32 1, ptr %4, align 4
  br label %127

10:                                               ; preds = %0
  %11 = load ptr, ptr %2, align 8, !tbaa !3
  call void @llvm.memset.p0.i64(ptr align 8 %11, i8 0, i64 632, i1 false)
  store double 0x3CB0000000000000, ptr %3, align 8, !tbaa !8
  %12 = load ptr, ptr %2, align 8, !tbaa !3
  %13 = getelementptr inbounds nuw %struct.KINMemRec, ptr %12, i32 0, i32 0
  store double 0x3CB0000000000000, ptr %13, align 8, !tbaa !10
  %14 = load ptr, ptr %2, align 8, !tbaa !3
  %15 = getelementptr inbounds nuw %struct.KINMemRec, ptr %14, i32 0, i32 1
  store ptr null, ptr %15, align 8, !tbaa !18
  %16 = load ptr, ptr %2, align 8, !tbaa !3
  %17 = getelementptr inbounds nuw %struct.KINMemRec, ptr %16, i32 0, i32 2
  store ptr null, ptr %17, align 8, !tbaa !19
  %18 = load ptr, ptr %2, align 8, !tbaa !3
  %19 = getelementptr inbounds nuw %struct.KINMemRec, ptr %18, i32 0, i32 45
  store ptr null, ptr %19, align 8, !tbaa !20
  %20 = load ptr, ptr %2, align 8, !tbaa !3
  %21 = getelementptr inbounds nuw %struct.KINMemRec, ptr %20, i32 0, i32 42
  store ptr null, ptr %21, align 8, !tbaa !21
  %22 = load ptr, ptr %2, align 8, !tbaa !3
  %23 = getelementptr inbounds nuw %struct.KINMemRec, ptr %22, i32 0, i32 43
  store ptr null, ptr %23, align 8, !tbaa !22
  %24 = load ptr, ptr %2, align 8, !tbaa !3
  %25 = getelementptr inbounds nuw %struct.KINMemRec, ptr %24, i32 0, i32 48
  store ptr null, ptr %25, align 8, !tbaa !23
  %26 = load ptr, ptr %2, align 8, !tbaa !3
  %27 = getelementptr inbounds nuw %struct.KINMemRec, ptr %26, i32 0, i32 49
  store ptr null, ptr %27, align 8, !tbaa !24
  %28 = load ptr, ptr %2, align 8, !tbaa !3
  %29 = getelementptr inbounds nuw %struct.KINMemRec, ptr %28, i32 0, i32 50
  store ptr null, ptr %29, align 8, !tbaa !25
  %30 = load ptr, ptr %2, align 8, !tbaa !3
  %31 = getelementptr inbounds nuw %struct.KINMemRec, ptr %30, i32 0, i32 51
  store ptr null, ptr %31, align 8, !tbaa !26
  %32 = load ptr, ptr %2, align 8, !tbaa !3
  %33 = getelementptr inbounds nuw %struct.KINMemRec, ptr %32, i32 0, i32 52
  store ptr null, ptr %33, align 8, !tbaa !27
  %34 = load ptr, ptr %2, align 8, !tbaa !3
  %35 = getelementptr inbounds nuw %struct.KINMemRec, ptr %34, i32 0, i32 53
  store ptr null, ptr %35, align 8, !tbaa !28
  %36 = load ptr, ptr %2, align 8, !tbaa !3
  %37 = getelementptr inbounds nuw %struct.KINMemRec, ptr %36, i32 0, i32 54
  store ptr null, ptr %37, align 8, !tbaa !29
  %38 = load ptr, ptr %2, align 8, !tbaa !3
  %39 = getelementptr inbounds nuw %struct.KINMemRec, ptr %38, i32 0, i32 55
  store ptr null, ptr %39, align 8, !tbaa !30
  %40 = load ptr, ptr %2, align 8, !tbaa !3
  %41 = getelementptr inbounds nuw %struct.KINMemRec, ptr %40, i32 0, i32 56
  store i64 0, ptr %41, align 8, !tbaa !31
  %42 = load ptr, ptr %2, align 8, !tbaa !3
  %43 = getelementptr inbounds nuw %struct.KINMemRec, ptr %42, i32 0, i32 57
  store i32 0, ptr %43, align 8, !tbaa !32
  %44 = load ptr, ptr %2, align 8, !tbaa !3
  %45 = getelementptr inbounds nuw %struct.KINMemRec, ptr %44, i32 0, i32 58
  store i32 0, ptr %45, align 4, !tbaa !33
  %46 = load ptr, ptr %2, align 8, !tbaa !3
  %47 = getelementptr inbounds nuw %struct.KINMemRec, ptr %46, i32 0, i32 14
  store i32 0, ptr %47, align 4, !tbaa !34
  %48 = load ptr, ptr %2, align 8, !tbaa !3
  %49 = getelementptr inbounds nuw %struct.KINMemRec, ptr %48, i32 0, i32 79
  store ptr @KINErrHandler, ptr %49, align 8, !tbaa !35
  %50 = load ptr, ptr %2, align 8, !tbaa !3
  %51 = load ptr, ptr %2, align 8, !tbaa !3
  %52 = getelementptr inbounds nuw %struct.KINMemRec, ptr %51, i32 0, i32 80
  store ptr %50, ptr %52, align 8, !tbaa !36
  %53 = load ptr, ptr @stderr, align 8, !tbaa !37
  %54 = load ptr, ptr %2, align 8, !tbaa !3
  %55 = getelementptr inbounds nuw %struct.KINMemRec, ptr %54, i32 0, i32 81
  store ptr %53, ptr %55, align 8, !tbaa !38
  %56 = load ptr, ptr %2, align 8, !tbaa !3
  %57 = getelementptr inbounds nuw %struct.KINMemRec, ptr %56, i32 0, i32 82
  store ptr @KINInfoHandler, ptr %57, align 8, !tbaa !39
  %58 = load ptr, ptr %2, align 8, !tbaa !3
  %59 = load ptr, ptr %2, align 8, !tbaa !3
  %60 = getelementptr inbounds nuw %struct.KINMemRec, ptr %59, i32 0, i32 83
  store ptr %58, ptr %60, align 8, !tbaa !40
  %61 = load ptr, ptr @stdout, align 8, !tbaa !37
  %62 = load ptr, ptr %2, align 8, !tbaa !3
  %63 = getelementptr inbounds nuw %struct.KINMemRec, ptr %62, i32 0, i32 84
  store ptr %61, ptr %63, align 8, !tbaa !41
  %64 = load ptr, ptr %2, align 8, !tbaa !3
  %65 = getelementptr inbounds nuw %struct.KINMemRec, ptr %64, i32 0, i32 6
  store i32 0, ptr %65, align 4, !tbaa !42
  %66 = load ptr, ptr %2, align 8, !tbaa !3
  %67 = getelementptr inbounds nuw %struct.KINMemRec, ptr %66, i32 0, i32 7
  store i64 200, ptr %67, align 8, !tbaa !43
  %68 = load ptr, ptr %2, align 8, !tbaa !3
  %69 = getelementptr inbounds nuw %struct.KINMemRec, ptr %68, i32 0, i32 29
  store i32 0, ptr %69, align 8, !tbaa !44
  %70 = load ptr, ptr %2, align 8, !tbaa !3
  %71 = getelementptr inbounds nuw %struct.KINMemRec, ptr %70, i32 0, i32 8
  store i64 10, ptr %71, align 8, !tbaa !45
  %72 = load ptr, ptr %2, align 8, !tbaa !3
  %73 = getelementptr inbounds nuw %struct.KINMemRec, ptr %72, i32 0, i32 17
  store i32 0, ptr %73, align 8, !tbaa !46
  %74 = load ptr, ptr %2, align 8, !tbaa !3
  %75 = getelementptr inbounds nuw %struct.KINMemRec, ptr %74, i32 0, i32 9
  store i64 5, ptr %75, align 8, !tbaa !47
  %76 = load ptr, ptr %2, align 8, !tbaa !3
  %77 = getelementptr inbounds nuw %struct.KINMemRec, ptr %76, i32 0, i32 19
  store i32 0, ptr %77, align 8, !tbaa !48
  %78 = load ptr, ptr %2, align 8, !tbaa !3
  %79 = getelementptr inbounds nuw %struct.KINMemRec, ptr %78, i32 0, i32 10
  store i64 10, ptr %79, align 8, !tbaa !49
  %80 = load ptr, ptr %2, align 8, !tbaa !3
  %81 = getelementptr inbounds nuw %struct.KINMemRec, ptr %80, i32 0, i32 30
  store double 2.000000e+00, ptr %81, align 8, !tbaa !50
  %82 = load ptr, ptr %2, align 8, !tbaa !3
  %83 = getelementptr inbounds nuw %struct.KINMemRec, ptr %82, i32 0, i32 12
  store i32 0, ptr %83, align 4, !tbaa !51
  %84 = load ptr, ptr %2, align 8, !tbaa !3
  %85 = getelementptr inbounds nuw %struct.KINMemRec, ptr %84, i32 0, i32 21
  store double 0.000000e+00, ptr %85, align 8, !tbaa !52
  %86 = load double, ptr %3, align 8, !tbaa !8
  %87 = call double @SUNRsqrt(double noundef %86)
  %88 = load ptr, ptr %2, align 8, !tbaa !3
  %89 = getelementptr inbounds nuw %struct.KINMemRec, ptr %88, i32 0, i32 22
  store double %87, ptr %89, align 8, !tbaa !53
  %90 = load double, ptr %3, align 8, !tbaa !8
  %91 = call double @SUNRpowerR(double noundef %90, double noundef 0x3FE5555555555556)
  %92 = load ptr, ptr %2, align 8, !tbaa !3
  %93 = getelementptr inbounds nuw %struct.KINMemRec, ptr %92, i32 0, i32 4
  store double %91, ptr %93, align 8, !tbaa !54
  %94 = load double, ptr %3, align 8, !tbaa !8
  %95 = call double @SUNRpowerR(double noundef %94, double noundef 0x3FD5555555555555)
  %96 = load ptr, ptr %2, align 8, !tbaa !3
  %97 = getelementptr inbounds nuw %struct.KINMemRec, ptr %96, i32 0, i32 3
  store double %95, ptr %97, align 8, !tbaa !55
  %98 = load ptr, ptr %2, align 8, !tbaa !3
  %99 = getelementptr inbounds nuw %struct.KINMemRec, ptr %98, i32 0, i32 11
  store i32 1, ptr %99, align 8, !tbaa !56
  %100 = load ptr, ptr %2, align 8, !tbaa !3
  %101 = getelementptr inbounds nuw %struct.KINMemRec, ptr %100, i32 0, i32 26
  store double 1.000000e-01, ptr %101, align 8, !tbaa !57
  %102 = load ptr, ptr %2, align 8, !tbaa !3
  %103 = getelementptr inbounds nuw %struct.KINMemRec, ptr %102, i32 0, i32 28
  store double 2.000000e+00, ptr %103, align 8, !tbaa !58
  %104 = load ptr, ptr %2, align 8, !tbaa !3
  %105 = getelementptr inbounds nuw %struct.KINMemRec, ptr %104, i32 0, i32 27
  store double 9.000000e-01, ptr %105, align 8, !tbaa !59
  %106 = load ptr, ptr %2, align 8, !tbaa !3
  %107 = getelementptr inbounds nuw %struct.KINMemRec, ptr %106, i32 0, i32 78
  store i32 0, ptr %107, align 8, !tbaa !60
  %108 = load ptr, ptr %2, align 8, !tbaa !3
  %109 = getelementptr inbounds nuw %struct.KINMemRec, ptr %108, i32 0, i32 13
  store i32 0, ptr %109, align 8, !tbaa !61
  %110 = load ptr, ptr %2, align 8, !tbaa !3
  %111 = getelementptr inbounds nuw %struct.KINMemRec, ptr %110, i32 0, i32 74
  store i32 1, ptr %111, align 8, !tbaa !62
  %112 = load ptr, ptr %2, align 8, !tbaa !3
  %113 = getelementptr inbounds nuw %struct.KINMemRec, ptr %112, i32 0, i32 75
  store double 0.000000e+00, ptr %113, align 8, !tbaa !63
  %114 = load ptr, ptr %2, align 8, !tbaa !3
  %115 = getelementptr inbounds nuw %struct.KINMemRec, ptr %114, i32 0, i32 76
  store double 1.000000e-05, ptr %115, align 8, !tbaa !64
  %116 = load ptr, ptr %2, align 8, !tbaa !3
  %117 = getelementptr inbounds nuw %struct.KINMemRec, ptr %116, i32 0, i32 77
  store double 9.000000e-01, ptr %117, align 8, !tbaa !65
  %118 = load ptr, ptr %2, align 8, !tbaa !3
  %119 = getelementptr inbounds nuw %struct.KINMemRec, ptr %118, i32 0, i32 61
  store i64 17, ptr %119, align 8, !tbaa !66
  %120 = load ptr, ptr %2, align 8, !tbaa !3
  %121 = getelementptr inbounds nuw %struct.KINMemRec, ptr %120, i32 0, i32 62
  store i64 22, ptr %121, align 8, !tbaa !67
  %122 = load ptr, ptr %2, align 8, !tbaa !3
  %123 = getelementptr inbounds nuw %struct.KINMemRec, ptr %122, i32 0, i32 59
  store i64 0, ptr %123, align 8, !tbaa !68
  %124 = load ptr, ptr %2, align 8, !tbaa !3
  %125 = getelementptr inbounds nuw %struct.KINMemRec, ptr %124, i32 0, i32 60
  store i64 0, ptr %125, align 8, !tbaa !69
  %126 = load ptr, ptr %2, align 8, !tbaa !3
  store ptr %126, ptr %1, align 8
  store i32 1, ptr %4, align 4
  br label %127

127:                                              ; preds = %10, %8
  call void @llvm.lifetime.end.p0(i64 8, ptr %3) #8
  call void @llvm.lifetime.end.p0(i64 8, ptr %2) #8
  %128 = load ptr, ptr %1, align 8
  ret ptr %128
}