; Function Attrs: nounwind uwtable
define noundef ptr @KINCreate() local_unnamed_addr #0 {
  %calloc = tail call dereferenceable_or_null(632) ptr @calloc(i64 1, i64 632)
  %1 = icmp eq ptr %calloc, null
  br i1 %1, label %2, label %3

2:                                                ; preds = %0
  tail call void (ptr, i32, ptr, ptr, ptr, ...) @KINProcessError(ptr noundef null, i32 noundef 0, ptr noundef nonnull @.str, ptr noundef nonnull @.str.1, ptr noundef nonnull @.str.2)
  br label %36

3:                                                ; preds = %0
  store double 0x3CB0000000000000, ptr %calloc, align 8, !tbaa !3
  %4 = getelementptr inbounds nuw i8, ptr %calloc, i64 584
  store ptr @KINErrHandler, ptr %4, align 8, !tbaa !15
  %5 = getelementptr inbounds nuw i8, ptr %calloc, i64 592
  store ptr %calloc, ptr %5, align 8, !tbaa !16
  %6 = load ptr, ptr @stderr, align 8, !tbaa !17
  %7 = getelementptr inbounds nuw i8, ptr %calloc, i64 600
  store ptr %6, ptr %7, align 8, !tbaa !18
  %8 = getelementptr inbounds nuw i8, ptr %calloc, i64 608
  store ptr @KINInfoHandler, ptr %8, align 8, !tbaa !19
  %9 = getelementptr inbounds nuw i8, ptr %calloc, i64 616
  store ptr %calloc, ptr %9, align 8, !tbaa !20
  %10 = load ptr, ptr @stdout, align 8, !tbaa !17
  %11 = getelementptr inbounds nuw i8, ptr %calloc, i64 624
  store ptr %10, ptr %11, align 8, !tbaa !21
  %12 = getelementptr inbounds nuw i8, ptr %calloc, i64 48
  store i64 200, ptr %12, align 8, !tbaa !22
  %13 = getelementptr inbounds nuw i8, ptr %calloc, i64 56
  store i64 10, ptr %13, align 8, !tbaa !23
  %14 = getelementptr inbounds nuw i8, ptr %calloc, i64 64
  store i64 5, ptr %14, align 8, !tbaa !24
  %15 = getelementptr inbounds nuw i8, ptr %calloc, i64 72
  store i64 10, ptr %15, align 8, !tbaa !25
  %16 = getelementptr inbounds nuw i8, ptr %calloc, i64 200
  store double 2.000000e+00, ptr %16, align 8, !tbaa !26
  %17 = tail call double @SUNRsqrt(double noundef 0x3CB0000000000000) #14
  %18 = getelementptr inbounds nuw i8, ptr %calloc, i64 136
  store double %17, ptr %18, align 8, !tbaa !27
  %19 = tail call double @SUNRpowerR(double noundef 0x3CB0000000000000, double noundef 0x3FE5555555555556) #14
  %20 = getelementptr inbounds nuw i8, ptr %calloc, i64 32
  store double %19, ptr %20, align 8, !tbaa !28
  %21 = tail call double @SUNRpowerR(double noundef 0x3CB0000000000000, double noundef 0x3FD5555555555555) #14
  %22 = getelementptr inbounds nuw i8, ptr %calloc, i64 24
  store double %21, ptr %22, align 8, !tbaa !29
  %23 = getelementptr inbounds nuw i8, ptr %calloc, i64 80
  store i32 1, ptr %23, align 8, !tbaa !30
  %24 = getelementptr inbounds nuw i8, ptr %calloc, i64 168
  store double 1.000000e-01, ptr %24, align 8, !tbaa !31
  %25 = getelementptr inbounds nuw i8, ptr %calloc, i64 184
  store double 2.000000e+00, ptr %25, align 8, !tbaa !32
  %26 = getelementptr inbounds nuw i8, ptr %calloc, i64 176
  store double 9.000000e-01, ptr %26, align 8, !tbaa !33
  %27 = getelementptr inbounds nuw i8, ptr %calloc, i64 576
  store i32 0, ptr %27, align 8, !tbaa !34
  %28 = getelementptr inbounds nuw i8, ptr %calloc, i64 88
  store i32 0, ptr %28, align 8, !tbaa !35
  %29 = getelementptr inbounds nuw i8, ptr %calloc, i64 544
  store i32 1, ptr %29, align 8, !tbaa !36
  %30 = getelementptr inbounds nuw i8, ptr %calloc, i64 552
  store double 0.000000e+00, ptr %30, align 8, !tbaa !37
  %31 = getelementptr inbounds nuw i8, ptr %calloc, i64 560
  store double 1.000000e-05, ptr %31, align 8, !tbaa !38
  %32 = getelementptr inbounds nuw i8, ptr %calloc, i64 568
  store double 9.000000e-01, ptr %32, align 8, !tbaa !39
  %33 = getelementptr inbounds nuw i8, ptr %calloc, i64 440
  store i64 17, ptr %33, align 8, !tbaa !40
  %34 = getelementptr inbounds nuw i8, ptr %calloc, i64 448
  store i64 22, ptr %34, align 8, !tbaa !41
  %35 = getelementptr inbounds nuw i8, ptr %calloc, i64 424
  tail call void @llvm.memset.p0.i64(ptr noundef nonnull align 8 dereferenceable(16) %35, i8 0, i64 16, i1 false)
  br label %36

36:                                               ; preds = %3, %2
  ret ptr %calloc
}